Certificate:
    Data:
        Version: 3 (0x2)
        Serial Number:
            44:22:66:48:6a:13:04:0c:50:34:2f:18:06:4e:fb:6a:f4:38:13:e6
        Signature Algorithm: sha384WithRSAEncryption
        Issuer: CN = ISecl Self Sign Cert
        Validity
            Not Before: Jul  7 02:41:57 2021 GMT
            Not After : Jul  7 02:41:57 2031 GMT
        Subject: CN = ISecl Self Sign Cert
        Subject Public Key Info:
            Public Key Algorithm: rsaEncryption
                RSA Public-Key: (4096 bit)
                Modulus:
                    00:e0:79:94:e2:96:80:5d:63:1a:fd:5f:88:76:e1:
                    dc:43:46:0b:7f:6b:00:39:a1:12:46:54:eb:68:e8:
                    c8:da:cb:9d:61:12:90:11:01:05:a4:02:4b:3d:86:
                    66:7c:14:17:ab:69:f9:89:37:51:36:26:6e:11:2d:
                    df:cf:36:34:7a:61:1a:bd:d2:93:9a:1b:3a:e5:94:
                    fe:2e:73:09:b4:0c:d9:c5:1e:9a:9a:ef:e7:bc:de:
                    0a:01:69:92:13:bb:cc:01:de:81:bb:de:9a:90:c2:
                    c1:03:c7:d4:8c:b9:cc:3d:d4:ec:65:f7:8f:e3:1e:
                    bf:b4:07:97:c2:a3:b1:eb:36:2c:e9:70:92:08:d1:
                    eb:5f:ae:70:67:e9:93:8c:44:3b:63:ae:21:02:ab:
                    e5:35:eb:6e:0a:a6:80:16:de:45:8f:92:02:25:d3:
                    5e:ee:b5:f2:3a:fe:0e:9b:17:c3:e6:d5:07:8a:32:
                    18:f7:1c:97:1a:dc:cf:1a:60:54:21:ea:6a:fa:a0:
                    6b:c3:97:bf:63:d2:39:16:f9:d8:d1:f2:a0:cc:63:
                    8d:19:01:cb:80:c5:6c:8e:96:2c:ac:f4:b8:fc:0a:
                    60:76:5d:1a:48:13:9d:2d:cd:ad:3d:96:23:ad:f4:
                    c3:2d:55:09:de:8d:c5:dd:4d:35:2e:f0:7a:52:4a:
                    4a:69:a5:44:71:2d:11:c2:9c:ff:20:b5:8a:14:46:
                    bf:e4:49:83:b4:82:2a:bb:ed:85:cb:38:75:3f:10:
                    d2:7b:e8:4e:38:47:74:c1:dd:be:c1:55:29:4e:22:
                    09:b4:0c:4a:ff:ca:79:ff:7a:b8:6b:94:6e:6e:9f:
                    40:5f:32:9a:30:f5:9a:25:24:4b:74:2e:51:8a:37:
                    37:ae:da:66:3b:a9:53:0d:d8:8d:f2:44:42:1a:0b:
                    5f:fe:ba:ca:01:c9:21:b8:5c:61:34:15:b9:88:1b:
                    7d:59:1c:5b:51:a0:56:45:fe:4d:d3:93:a3:97:a2:
                    e9:f2:f6:0f:04:49:77:bf:b1:5f:4a:f2:3a:92:c6:
                    6d:84:16:ef:ca:fb:d1:28:ea:27:6f:f3:ae:90:f7:
                    00:f2:ad:5a:d5:9f:8f:d3:10:e2:e5:ec:07:9a:1a:
                    ec:fb:65:a5:01:fd:a4:1e:33:29:fd:48:7b:c5:62:
                    ec:89:89:3e:03:31:29:17:69:3e:e9:71:7c:c6:1d:
                    91:54:b3:d9:ae:d8:88:05:39:2c:6c:74:6a:5a:49:
                    32:32:45:cf:f9:98:29:d2:be:b2:9a:d3:37:1b:2a:
                    37:0e:17:f9:25:15:31:05:43:73:b2:2e:50:2e:11:
                    b0:b5:d6:5a:45:4c:33:71:b1:de:51:df:4c:1c:44:
                    6f:94:e9
                Exponent: 65537 (0x10001)
        X509v3 extensions:
            X509v3 Subject Key Identifier: 
                AE:98:62:FF:8C:8A:1B:2A:82:87:68:4D:FB:9F:F1:11:64:A4:17:89
            X509v3 Authority Key Identifier: 
                keyid:AE:98:62:FF:8C:8A:1B:2A:82:87:68:4D:FB:9F:F1:11:64:A4:17:89

            X509v3 Basic Constraints: critical
                CA:TRUE
            X509v3 Subject Alternative Name: 
                DNS:localhost, IP Address:127.0.0.1
    Signature Algorithm: sha384WithRSAEncryption
         8e:74:81:75:ed:2d:1c:09:bf:2a:51:41:0f:ba:90:14:d6:eb:
         d4:82:2a:f6:30:9f:f1:0e:0e:f8:cc:ef:c0:83:7c:15:6c:55:
         5f:d2:a4:b4:ec:b1:a8:40:f0:20:a7:1e:81:9f:8b:36:b1:e9:
         ac:20:48:3b:dd:44:11:1e:81:31:1a:7e:51:c9:72:6c:0d:1e:
         08:0f:15:c9:69:a2:b7:ea:8c:be:59:59:7b:7c:a4:22:1c:2a:
         32:a8:b4:eb:c6:b6:4b:e8:b5:06:74:7a:65:84:79:b1:8a:77:
         91:32:b6:fc:62:79:df:1b:42:5c:9f:47:64:dd:9e:94:ca:e4:
         44:7e:9a:e3:34:80:85:50:92:d2:27:ac:8c:5e:6d:2b:28:1d:
         cd:92:a6:8e:6b:1e:1b:d9:f4:50:f3:06:7b:d0:6c:1b:a2:6f:
         de:7e:e1:94:4f:40:49:34:a5:0a:11:60:06:31:df:d9:64:e6:
         31:cb:de:8a:0c:23:26:66:8f:49:fa:59:ff:7e:46:a2:cf:89:
         6a:76:b3:89:79:e7:f2:3a:34:64:a1:cc:0c:9c:6f:b9:b3:64:
         60:bc:b1:c4:cb:5c:9a:16:70:05:a2:11:c1:18:e6:c0:68:7c:
         ab:19:1a:0b:3e:ed:e3:4b:a3:57:9d:52:73:cc:a0:78:53:d3:
         ed:f1:43:01:db:3e:6e:9a:5c:f5:7f:8b:11:ad:60:2e:7e:f1:
         3c:88:35:1a:0d:96:5c:7d:64:ac:ce:2a:4d:5e:26:d9:ba:7c:
         17:94:8c:65:cc:45:3a:22:f7:e8:08:c6:a3:e8:15:55:f5:b9:
         fa:b5:34:9b:c5:cc:86:7f:59:5e:5e:21:93:76:a3:1a:be:43:
         92:b4:81:78:22:11:41:cb:0a:f3:d3:26:4a:b5:46:53:fa:a1:
         af:d4:6e:8e:ff:90:58:41:97:56:d1:6c:2d:4d:94:49:c3:28:
         a2:5f:22:32:bc:13:ba:89:d7:41:19:5f:f4:98:7f:57:9b:6b:
         18:af:ed:a8:bd:c8:0b:61:1f:59:2d:d7:b9:f6:75:a0:47:df:
         45:c5:b3:02:9d:9f:f3:09:fa:62:75:8f:f5:4c:5f:ce:68:c0:
         aa:a4:18:f3:7b:47:3d:39:52:7c:83:e4:25:fd:5b:7a:59:42:
         ee:a6:50:77:fe:f1:84:51:7d:49:bc:47:fd:0c:4f:7b:6b:50:
         61:ef:d5:07:43:84:2a:78:dc:03:e5:ce:db:65:13:6d:f1:3c:
         cd:6f:1c:b3:1c:64:5c:7d:f2:81:ed:2e:45:3f:a9:1c:4d:f6:
         ae:bc:99:f3:5c:76:8d:4f:cf:07:5c:80:1d:9d:00:1f:fe:8f:
         97:e8:0c:eb:93:04:ef:8e
-----BEGIN CERTIFICATE-----
MIIFOzCCAyOgAwIBAgIURCJmSGoTBAxQNC8YBk77avQ4E+YwDQYJKoZIhvcNAQEM
BQAwHzEdMBsGA1UEAwwUSVNlY2wgU2VsZiBTaWduIENlcnQwHhcNMjEwNzA3MDI0
MTU3WhcNMzEwNzA3MDI0MTU3WjAfMR0wGwYDVQQDDBRJU2VjbCBTZWxmIFNpZ24g
Q2VydDCCAiIwDQYJKoZIhvcNAQEBBQADggIPADCCAgoCggIBAOB5lOKWgF1jGv1f
iHbh3ENGC39rADmhEkZU62joyNrLnWESkBEBBaQCSz2GZnwUF6tp+Yk3UTYmbhEt
3882NHphGr3Sk5obOuWU/i5zCbQM2cUemprv57zeCgFpkhO7zAHegbvempDCwQPH
1Iy5zD3U7GX3j+Mev7QHl8Kjses2LOlwkgjR61+ucGfpk4xEO2OuIQKr5TXrbgqm
gBbeRY+SAiXTXu618jr+DpsXw+bVB4oyGPcclxrczxpgVCHqavqga8OXv2PSORb5
2NHyoMxjjRkBy4DFbI6WLKz0uPwKYHZdGkgTnS3NrT2WI630wy1VCd6Nxd1NNS7w
elJKSmmlRHEtEcKc/yC1ihRGv+RJg7SCKrvthcs4dT8Q0nvoTjhHdMHdvsFVKU4i
CbQMSv/Kef96uGuUbm6fQF8ymjD1miUkS3QuUYo3N67aZjupUw3YjfJEQhoLX/66
ygHJIbhcYTQVuYgbfVkcW1GgVkX+TdOTo5ei6fL2DwRJd7+xX0ryOpLGbYQW78r7
0SjqJ2/zrpD3APKtWtWfj9MQ4uXsB5oa7PtlpQH9pB4zKf1Ie8Vi7ImJPgMxKRdp
PulxfMYdkVSz2a7YiAU5LGx0alpJMjJFz/mYKdK+sprTNxsqNw4X+SUVMQVDc7Iu
UC4RsLXWWkVMM3Gx3lHfTBxEb5TpAgMBAAGjbzBtMB0GA1UdDgQWBBSumGL/jIob
KoKHaE37n/ERZKQXiTAfBgNVHSMEGDAWgBSumGL/jIobKoKHaE37n/ERZKQXiTAP
BgNVHRMBAf8EBTADAQH/MBoGA1UdEQQTMBGCCWxvY2FsaG9zdIcEfwAAATANBgkq
hkiG9w0BAQwFAAOCAgEAjnSBde0tHAm/KlFBD7qQFNbr1IIq9jCf8Q4O+MzvwIN8
FWxVX9KktOyxqEDwIKcegZ+LNrHprCBIO91EER6BMRp+UclybA0eCA8VyWmit+qM
vllZe3ykIhwqMqi068a2S+i1BnR6ZYR5sYp3kTK2/GJ53xtCXJ9HZN2elMrkRH6a
4zSAhVCS0iesjF5tKygdzZKmjmseG9n0UPMGe9BsG6Jv3n7hlE9ASTSlChFgBjHf
2WTmMcveigwjJmaPSfpZ/35Gos+JanaziXnn8jo0ZKHMDJxvubNkYLyxxMtcmhZw
BaIRwRjmwGh8qxkaCz7t40ujV51Sc8ygeFPT7fFDAds+bppc9X+LEa1gLn7xPIg1
Gg2WXH1krM4qTV4m2bp8F5SMZcxFOiL36AjGo+gVVfW5+rU0m8XMhn9ZXl4hk3aj
Gr5DkrSBeCIRQcsK89MmSrVGU/qhr9Rujv+QWEGXVtFsLU2UScMool8iMrwTuonX
QRlf9Jh/V5trGK/tqL3IC2EfWS3XufZ1oEffRcWzAp2f8wn6YnWP9UxfzmjAqqQY
83tHPTlSfIPkJf1bellC7qZQd/7xhFF9SbxH/QxPe2tQYe/VB0OEKnjcA+XO22UT
bfE8zW8csxxkXH3yge0uRT+pHE32rryZ81x2jU/PB1yAHZ0AH/6Pl+gM65ME744=
-----END CERTIFICATE-----
